target datalayout = "e-m:e-p270:32:32-p271:32:32-p272:64:64-i64:64-i128:128-f80:128-n8:16:32:64-S128"
target triple = "x86_64-pc-linux-gnu"

%"class.gmx::PmeLoadBalanceHelper" = type { %"class.gmx::INeighborSearchSignallerClient", ptr, i64, i8, i8, ptr, ptr, ptr, ptr, ptr, ptr, ptr }
%"class.gmx::INeighborSearchSignallerClient" = type { ptr }

@_ZTVN3gmx20PmeLoadBalanceHelperE = unnamed_addr constant { [5 x ptr] } { [5 x ptr] [ptr null, ptr @_ZTIN3gmx20PmeLoadBalanceHelperE, ptr @_ZN3gmx30INeighborSearchSignallerClientD2Ev, ptr @_ZN3gmx20PmeLoadBalanceHelperD0Ev, ptr @_ZN3gmx20PmeLoadBalanceHelper18registerNSCallbackEv] }, align 8

; Function Attrs: inlinehint mustprogress nounwind uwtable
define linkonce_odr void @_ZN3gmx30INeighborSearchSignallerClientC2Ev(ptr noundef nonnull align 8 dereferenceable(8) %0) unnamed_addr #1 comdat align 2 {
  %2 = alloca ptr, align 8
  store ptr %0, ptr %2, align 8, !tbaa !4
  %3 = load ptr, ptr %2, align 8
  store ptr getelementptr inbounds inrange(-16, 24) ({ [5 x ptr] }, ptr @_ZTVN3gmx30INeighborSearchSignallerClientE, i32 0, i32 0, i32 2), ptr %3, align 8, !tbaa !152
  ret void
}

; Function Attrs: mustprogress nounwind uwtable
define void @_ZN3gmx20PmeLoadBalanceHelperC2EbPNS_19StatePropagatorDataEP8_IO_FILEP9t_commrecRKNS_8MDLoggerEPK10t_inputrecP13gmx_wallcycleP10t_forcerec(ptr noundef nonnull align 8 dereferenceable(88) %0, i1 noundef zeroext %1, ptr noundef %2, ptr noundef %3, ptr noundef %4, ptr noundef nonnull align 8 dereferenceable(40) %5, ptr noundef %6, ptr noundef %7, ptr noundef %8) unnamed_addr #0 align 2 {
  %10 = alloca ptr, align 8
  %11 = alloca i8, align 1
  %12 = alloca ptr, align 8
  %13 = alloca ptr, align 8
  %14 = alloca ptr, align 8
  %15 = alloca ptr, align 8
  %16 = alloca ptr, align 8
  %17 = alloca ptr, align 8
  %18 = alloca ptr, align 8
  store ptr %0, ptr %10, align 8, !tbaa !9
  %19 = zext i1 %1 to i8
  store i8 %19, ptr %11, align 1, !tbaa !141
  store ptr %2, ptr %12, align 8, !tbaa !142
  store ptr %3, ptr %13, align 8, !tbaa !144
  store ptr %4, ptr %14, align 8, !tbaa !146
  store ptr %5, ptr %15, align 8, !tbaa !148
  store ptr %6, ptr %16, align 8, !tbaa !15
  store ptr %7, ptr %17, align 8, !tbaa !150
  store ptr %8, ptr %18, align 8, !tbaa !17
  %20 = load ptr, ptr %10, align 8
  call void @_ZN3gmx30INeighborSearchSignallerClientC2Ev(ptr noundef nonnull align 8 dereferenceable(8) %20) #12
  store ptr getelementptr inbounds inrange(-16, 24) ({ [5 x ptr] }, ptr @_ZTVN3gmx20PmeLoadBalanceHelperE, i32 0, i32 0, i32 2), ptr %20, align 8, !tbaa !152
  %21 = getelementptr inbounds nuw %"class.gmx::PmeLoadBalanceHelper", ptr %20, i32 0, i32 1
  store ptr null, ptr %21, align 8, !tbaa !154
  %22 = getelementptr inbounds nuw %"class.gmx::PmeLoadBalanceHelper", ptr %20, i32 0, i32 2
  store i64 -1, ptr %22, align 8, !tbaa !158
  %23 = getelementptr inbounds nuw %"class.gmx::PmeLoadBalanceHelper", ptr %20, i32 0, i32 3
  %24 = load i8, ptr %11, align 1, !tbaa !141, !range !31, !noundef !32
  %25 = trunc i8 %24 to i1
  %26 = zext i1 %25 to i8
  store i8 %26, ptr %23, align 8, !tbaa !159
  %27 = getelementptr inbounds nuw %"class.gmx::PmeLoadBalanceHelper", ptr %20, i32 0, i32 4
  store i8 0, ptr %27, align 1, !tbaa !160
  %28 = getelementptr inbounds nuw %"class.gmx::PmeLoadBalanceHelper", ptr %20, i32 0, i32 5
  %29 = load ptr, ptr %12, align 8, !tbaa !142
  store ptr %29, ptr %28, align 8, !tbaa !161
  %30 = getelementptr inbounds nuw %"class.gmx::PmeLoadBalanceHelper", ptr %20, i32 0, i32 6
  %31 = load ptr, ptr %13, align 8, !tbaa !144
  store ptr %31, ptr %30, align 8, !tbaa !162
  %32 = getelementptr inbounds nuw %"class.gmx::PmeLoadBalanceHelper", ptr %20, i32 0, i32 7
  %33 = load ptr, ptr %14, align 8, !tbaa !146
  store ptr %33, ptr %32, align 8, !tbaa !163
  %34 = getelementptr inbounds nuw %"class.gmx::PmeLoadBalanceHelper", ptr %20, i32 0, i32 8
  %35 = load ptr, ptr %15, align 8, !tbaa !148
  store ptr %35, ptr %34, align 8, !tbaa !148
  %36 = getelementptr inbounds nuw %"class.gmx::PmeLoadBalanceHelper", ptr %20, i32 0, i32 9
  %37 = load ptr, ptr %16, align 8, !tbaa !15
  store ptr %37, ptr %36, align 8, !tbaa !164
  %38 = getelementptr inbounds nuw %"class.gmx::PmeLoadBalanceHelper", ptr %20, i32 0, i32 10
  %39 = load ptr, ptr %17, align 8, !tbaa !150
  store ptr %39, ptr %38, align 8, !tbaa !165
  %40 = getelementptr inbounds nuw %"class.gmx::PmeLoadBalanceHelper", ptr %20, i32 0, i32 11
  %41 = load ptr, ptr %18, align 8, !tbaa !17
  store ptr %41, ptr %40, align 8, !tbaa !166
  ret void
}