; Function Attrs: mustprogress nofree norecurse nosync nounwind willreturn memory(argmem: write) uwtable
define void @_ZN3gmx20PmeLoadBalanceHelperC2EbPNS_19StatePropagatorDataEP8_IO_FILEP9t_commrecRKNS_8MDLoggerEPK10t_inputrecP13gmx_wallcycleP10t_forcerec(ptr noundef nonnull writeonly align 8 captures(none) dereferenceable(88) initializes((0, 26), (32, 88)) %0, i1 noundef zeroext %1, ptr noundef %2, ptr noundef %3, ptr noundef %4, ptr noundef nonnull align 8 dereferenceable(40) %5, ptr noundef %6, ptr noundef %7, ptr noundef %8) unnamed_addr #2 align 2 {
  %10 = zext i1 %1 to i8
  store ptr getelementptr inbounds nuw inrange(-16, 24) (i8, ptr @_ZTVN3gmx20PmeLoadBalanceHelperE, i64 16), ptr %0, align 8, !tbaa !124
  %11 = getelementptr inbounds nuw i8, ptr %0, i64 8
  store ptr null, ptr %11, align 8, !tbaa !126
  %12 = getelementptr inbounds nuw i8, ptr %0, i64 16
  store i64 -1, ptr %12, align 8, !tbaa !137
  %13 = getelementptr inbounds nuw i8, ptr %0, i64 24
  store i8 %10, ptr %13, align 8, !tbaa !138
  %14 = getelementptr inbounds nuw i8, ptr %0, i64 25
  store i8 0, ptr %14, align 1, !tbaa !139
  %15 = getelementptr inbounds nuw i8, ptr %0, i64 32
  store ptr %2, ptr %15, align 8, !tbaa !140
  %16 = getelementptr inbounds nuw i8, ptr %0, i64 40
  store ptr %3, ptr %16, align 8, !tbaa !141
  %17 = getelementptr inbounds nuw i8, ptr %0, i64 48
  store ptr %4, ptr %17, align 8, !tbaa !142
  %18 = getelementptr inbounds nuw i8, ptr %0, i64 56
  store ptr %5, ptr %18, align 8, !tbaa !143
  %19 = getelementptr inbounds nuw i8, ptr %0, i64 64
  store ptr %6, ptr %19, align 8, !tbaa !144
  %20 = getelementptr inbounds nuw i8, ptr %0, i64 72
  store ptr %7, ptr %20, align 8, !tbaa !145
  %21 = getelementptr inbounds nuw i8, ptr %0, i64 80
  store ptr %8, ptr %21, align 8, !tbaa !146
  ret void
}